target datalayout = "e-m:e-p270:32:32-p271:32:32-p272:64:64-i64:64-i128:128-f80:128-n8:16:32:64-S128"
target triple = "x86_64-pc-linux-gnu"

%"class.llvm::StringRef" = type { ptr, i64 }
%"class.llvm::opt::OptSpecifier" = type { i32 }
%"class.llvm::SmallVectorBase" = type { ptr, i32, i32 }
%"class.llvm::opt::Arg" = type { %"class.llvm::opt::Option", ptr, %"class.llvm::StringRef", i32, i8, %"class.llvm::SmallVector.29", %"class.std::unique_ptr.34" }
%"class.llvm::opt::Option" = type { ptr, ptr }
%"class.llvm::SmallVector.29" = type { %"class.llvm::SmallVectorImpl.30", %"struct.llvm::SmallVectorStorage.33" }
%"class.llvm::SmallVectorImpl.30" = type { %"class.llvm::SmallVectorTemplateBase.31" }
%"class.llvm::SmallVectorTemplateBase.31" = type { %"class.llvm::SmallVectorTemplateCommon.32" }
%"class.llvm::SmallVectorTemplateCommon.32" = type { %"class.llvm::SmallVectorBase" }
%"struct.llvm::SmallVectorStorage.33" = type { [16 x i8] }
%"class.std::unique_ptr.34" = type { %"struct.std::__uniq_ptr_data.35" }
%"struct.std::__uniq_ptr_data.35" = type { %"class.std::__uniq_ptr_impl.36" }
%"class.std::__uniq_ptr_impl.36" = type { %"class.std::tuple.37" }
%"class.std::tuple.37" = type { %"struct.std::_Tuple_impl.38" }
%"struct.std::_Tuple_impl.38" = type { %"struct.std::_Head_base.41" }
%"struct.std::_Head_base.41" = type { ptr }

; Function Attrs: mustprogress nounwind uwtable
define linkonce_odr hidden void @_ZN4llvm3opt12OptSpecifierC2Ej(ptr noundef nonnull align 4 dereferenceable(4) %0, i32 noundef %1) unnamed_addr #0 comdat align 2 {
  %3 = alloca ptr, align 8
  %4 = alloca i32, align 4
  store ptr %0, ptr %3, align 8
  store i32 %1, ptr %4, align 4
  %5 = load ptr, ptr %3, align 8
  %6 = getelementptr inbounds nuw %"class.llvm::opt::OptSpecifier", ptr %5, i32 0, i32 0
  %7 = load i32, ptr %4, align 4
  store i32 %7, ptr %6, align 4
  ret void
}

; Function Attrs: mustprogress nounwind uwtable
define linkonce_odr hidden noundef nonnull align 8 dereferenceable(16) ptr @_ZNK4llvm3opt3Arg9getOptionEv(ptr noundef nonnull align 8 dereferenceable(88) %0) #0 comdat align 2 {
  %2 = alloca ptr, align 8
  store ptr %0, ptr %2, align 8
  %3 = load ptr, ptr %2, align 8
  %4 = getelementptr inbounds nuw %"class.llvm::opt::Arg", ptr %3, i32 0, i32 0
  ret ptr %4
}

; Function Attrs: mustprogress nounwind uwtable
define dso_local noundef ptr @_ZN5clang6driver5tools27getLastCSProfileGenerateArgERKN4llvm3opt7ArgListE(ptr noundef nonnull align 8 dereferenceable(176) %0) #0 {
  %2 = alloca ptr, align 8
  %3 = alloca ptr, align 8
  %4 = alloca %"class.llvm::opt::OptSpecifier", align 4
  store ptr %0, ptr %2, align 8
  %5 = load ptr, ptr %2, align 8
  %6 = call noundef ptr @_ZNK4llvm3opt7ArgList10getLastArgIJN5clang6driver7options2IDES6_S6_EEEPNS0_3ArgEDpT_(ptr noundef nonnull align 8 dereferenceable(176) %5, i32 noundef 529, i32 noundef 528, i32 noundef 1257)
  store ptr %6, ptr %3, align 8
  %7 = load ptr, ptr %3, align 8
  %8 = icmp ne ptr %7, null
  br i1 %8, label %9, label %16

9:                                                ; preds = %1
  %10 = load ptr, ptr %3, align 8
  %11 = call noundef nonnull align 8 dereferenceable(16) ptr @_ZNK4llvm3opt3Arg9getOptionEv(ptr noundef nonnull align 8 dereferenceable(88) %10)
  call void @_ZN4llvm3opt12OptSpecifierC2Ej(ptr noundef nonnull align 4 dereferenceable(4) %4, i32 noundef 1257)
  %12 = getelementptr inbounds nuw %"class.llvm::opt::OptSpecifier", ptr %4, i32 0, i32 0
  %13 = load i32, ptr %12, align 4
  %14 = call noundef zeroext i1 @_ZNK4llvm3opt6Option7matchesENS0_12OptSpecifierE(ptr noundef nonnull align 8 dereferenceable(16) %11, i32 %13)
  br i1 %14, label %15, label %16

15:                                               ; preds = %9
  store ptr null, ptr %3, align 8
  br label %16

16:                                               ; preds = %15, %9, %1
  %17 = load ptr, ptr %3, align 8
  ret ptr %17
}