; Function Attrs: mustprogress nounwind uwtable
define dso_local noundef ptr @_ZN5clang6driver5tools27getLastCSProfileGenerateArgERKN4llvm3opt7ArgListE(ptr noundef nonnull align 8 dereferenceable(176) %0) local_unnamed_addr #0 {
  %2 = tail call noundef ptr @_ZNK4llvm3opt7ArgList10getLastArgIJN5clang6driver7options2IDES6_S6_EEEPNS0_3ArgEDpT_(ptr noundef nonnull align 8 dereferenceable(176) %0, i32 noundef 529, i32 noundef 528, i32 noundef 1257)
  %.not = icmp eq ptr %2, null
  br i1 %.not, label %5, label %3

3:                                                ; preds = %1
  %4 = tail call noundef zeroext i1 @_ZNK4llvm3opt6Option7matchesENS0_12OptSpecifierE(ptr noundef nonnull align 8 dereferenceable(16) %2, i32 1257) #21
  %spec.select = select i1 %4, ptr null, ptr %2
  br label %5

5:                                                ; preds = %3, %1
  %.0 = phi ptr [ null, %1 ], [ %spec.select, %3 ]
  ret ptr %.0
}